target datalayout = "e-m:e-p270:32:32-p271:32:32-p272:64:64-i64:64-i128:128-f80:128-n8:16:32:64-S128"
target triple = "x86_64-pc-linux-gnu"

%struct._capture_file = type { ptr, i32, ptr, ptr, i8, i8, i8, i64, i16, i32, i32, i32, ptr, i32, i64, i32, i32, i32, i32, i8, i32, %struct.nstime_t, i32, ptr, ptr, ptr, i8, i8, i32, ptr, i8, i8, i8, i8, i8, i32, i32, i8, ptr, i32, i32, i8, %struct.packet_provider_data, i32, i32, %struct.epan_column_info, ptr, ptr, ptr, %struct.wtap_rec, %struct.Buffer, ptr, i64, i32 }
%struct.nstime_t = type { i64, i32 }
%struct.packet_provider_data = type { ptr, ptr, ptr, ptr, ptr, ptr }
%struct.epan_column_info = type { ptr, i32, ptr, ptr, ptr, %struct.col_expr_t, i8, ptr }
%struct.col_expr_t = type { ptr, ptr }
%struct.wtap_rec = type { i32, i32, i32, %struct.nstime_t, i32, %struct.nstime_t, i8, %union.anon, ptr, i8, %struct.Buffer, %struct.Buffer }
%union.anon = type { %struct.wtap_packet_header }
%struct.wtap_packet_header = type { i32, i32, i32, i32, %union.wtap_pseudo_header }
%union.wtap_pseudo_header = type { %struct.erf_mc_phdr }
%struct.erf_mc_phdr = type { %struct.erf_phdr, [16 x %struct.erf_ehdr], %union.anon.1 }
%struct.erf_phdr = type { i64, i8, i8, i16, i16, i16 }
%struct.erf_ehdr = type { i64 }
%union.anon.1 = type { i32 }
%struct.Buffer = type { ptr, i64, i64, i64 }
%struct._frame_data = type <{ i32, i32, i32, i32, i32, [4 x i8], i64, ptr, ptr, ptr, i8, i16, [5 x i8], %struct.nstime_t, %struct.nstime_t, i32, i32 }>
%struct.save_callback_args_t = type { ptr, ptr, i32, i8 }

; Function Attrs: inlinehint nounwind null_pointer_is_valid sspstrong uwtable
define internal ptr @ws_buffer_start_ptr(ptr noundef %0) #17 {
  %2 = alloca ptr, align 8
  store ptr %0, ptr %2, align 8
  %3 = load ptr, ptr %2, align 8
  %4 = getelementptr inbounds nuw %struct.Buffer, ptr %3, i32 0, i32 0
  %5 = load ptr, ptr %4, align 8
  %6 = load ptr, ptr %2, align 8
  %7 = getelementptr inbounds nuw %struct.Buffer, ptr %6, i32 0, i32 2
  %8 = load i64, ptr %7, align 8
  %9 = getelementptr i8, ptr %5, i64 %8
  ret ptr %9
}

; Function Attrs: null_pointer_is_valid sspstrong uwtable
define internal zeroext i1 @save_record(ptr noundef %0, ptr noundef %1, ptr noundef %2, ptr noundef %3) #1 {
  %5 = alloca i1, align 1
  %6 = alloca ptr, align 8
  %7 = alloca ptr, align 8
  %8 = alloca ptr, align 8
  %9 = alloca ptr, align 8
  %10 = alloca ptr, align 8
  %11 = alloca %struct.wtap_rec, align 8
  %12 = alloca i32, align 4
  %13 = alloca ptr, align 8
  %14 = alloca ptr, align 8
  %15 = alloca i32, align 4
  store ptr %0, ptr %6, align 8
  store ptr %1, ptr %7, align 8
  store ptr %2, ptr %8, align 8
  store ptr %3, ptr %9, align 8
  call void @llvm.lifetime.start.p0(i64 8, ptr %10) #19
  %16 = load ptr, ptr %9, align 8
  store ptr %16, ptr %10, align 8
  call void @llvm.lifetime.start.p0(i64 312, ptr %11) #19
  call void @llvm.lifetime.start.p0(i64 4, ptr %12) #19
  call void @llvm.lifetime.start.p0(i64 8, ptr %13) #19
  call void @llvm.lifetime.start.p0(i64 8, ptr %14) #19
  %17 = load ptr, ptr %8, align 8
  call void @llvm.memcpy.p0.p0.i64(ptr align 8 %11, ptr align 8 %17, i64 312, i1 false)
  %18 = load ptr, ptr %7, align 8
  %19 = getelementptr inbounds nuw %struct._frame_data, ptr %18, i32 0, i32 11
  %20 = load i16, ptr %19, align 1
  %21 = lshr i16 %20, 8
  %22 = and i16 %21, 1
  %23 = zext i16 %22 to i32
  %24 = icmp ne i32 %23, 0
  br i1 %24, label %25, label %30

25:                                               ; preds = %4
  %26 = load ptr, ptr %6, align 8
  %27 = getelementptr inbounds nuw %struct._capture_file, ptr %26, i32 0, i32 42
  %28 = load ptr, ptr %7, align 8
  %29 = call ptr @cap_file_provider_get_modified_block(ptr noundef %27, ptr noundef %28)
  store ptr %29, ptr %14, align 8
  br label %34

30:                                               ; preds = %4
  %31 = load ptr, ptr %8, align 8
  %32 = getelementptr inbounds nuw %struct.wtap_rec, ptr %31, i32 0, i32 8
  %33 = load ptr, ptr %32, align 8
  store ptr %33, ptr %14, align 8
  br label %34

34:                                               ; preds = %30, %25
  %35 = load ptr, ptr %14, align 8
  %36 = getelementptr inbounds nuw %struct.wtap_rec, ptr %11, i32 0, i32 8
  store ptr %35, ptr %36, align 8
  %37 = load ptr, ptr %7, align 8
  %38 = getelementptr inbounds nuw %struct._frame_data, ptr %37, i32 0, i32 11
  %39 = load i16, ptr %38, align 1
  %40 = lshr i16 %39, 8
  %41 = and i16 %40, 1
  %42 = zext i16 %41 to i32
  %43 = icmp ne i32 %42, 0
  %44 = select i1 %43, i32 1, i32 0
  %45 = icmp ne i32 %44, 0
  %46 = getelementptr inbounds nuw %struct.wtap_rec, ptr %11, i32 0, i32 9
  %47 = zext i1 %45 to i8
  store i8 %47, ptr %46, align 8
  %48 = load ptr, ptr %7, align 8
  %49 = getelementptr inbounds nuw %struct._frame_data, ptr %48, i32 0, i32 14
  %50 = call zeroext i1 @nstime_is_zero(ptr noundef %49)
  br i1 %50, label %62, label %51

51:                                               ; preds = %34
  %52 = getelementptr inbounds nuw %struct.wtap_rec, ptr %11, i32 0, i32 1
  %53 = load i32, ptr %52, align 4
  %54 = and i32 %53, 1
  %55 = icmp ne i32 %54, 0
  br i1 %55, label %56, label %61

56:                                               ; preds = %51
  %57 = getelementptr inbounds nuw %struct.wtap_rec, ptr %11, i32 0, i32 3
  %58 = getelementptr inbounds nuw %struct.wtap_rec, ptr %11, i32 0, i32 3
  %59 = load ptr, ptr %7, align 8
  %60 = getelementptr inbounds nuw %struct._frame_data, ptr %59, i32 0, i32 14
  call void @nstime_sum(ptr noundef %57, ptr noundef %58, ptr noundef %60)
  br label %61

61:                                               ; preds = %56, %51
  br label %62

62:                                               ; preds = %61, %34
  %63 = load ptr, ptr %10, align 8
  %64 = getelementptr inbounds nuw %struct.save_callback_args_t, ptr %63, i32 0, i32 0
  %65 = load ptr, ptr %64, align 8
  %66 = load ptr, ptr %8, align 8
  %67 = getelementptr inbounds nuw %struct.wtap_rec, ptr %66, i32 0, i32 11
  %68 = call ptr @ws_buffer_start_ptr(ptr noundef %67)
  %69 = call zeroext i1 @wtap_dump(ptr noundef %65, ptr noundef %11, ptr noundef %68, ptr noundef %12, ptr noundef %13)
  br i1 %69, label %83, label %70

70:                                               ; preds = %62
  %71 = load ptr, ptr %10, align 8
  %72 = getelementptr inbounds nuw %struct.save_callback_args_t, ptr %71, i32 0, i32 1
  %73 = load ptr, ptr %72, align 8
  %74 = load i32, ptr %12, align 4
  %75 = load ptr, ptr %13, align 8
  %76 = load ptr, ptr %7, align 8
  %77 = getelementptr inbounds nuw %struct._frame_data, ptr %76, i32 0, i32 0
  %78 = load i32, ptr %77, align 8
  %79 = zext i32 %78 to i64
  %80 = load ptr, ptr %10, align 8
  %81 = getelementptr inbounds nuw %struct.save_callback_args_t, ptr %80, i32 0, i32 2
  %82 = load i32, ptr %81, align 8
  call void @report_cfile_write_failure(ptr noundef null, ptr noundef %73, i32 noundef %74, ptr noundef %75, i64 noundef %79, i32 noundef %82)
  store i1 false, ptr %5, align 1
  store i32 1, ptr %15, align 4
  br label %97

83:                                               ; preds = %62
  %84 = load ptr, ptr %10, align 8
  %85 = getelementptr inbounds nuw %struct.save_callback_args_t, ptr %84, i32 0, i32 3
  %86 = load i8, ptr %85, align 4, !range !8, !noundef !9
  %87 = trunc i8 %86 to i1
  br i1 %87, label %96, label %88

88:                                               ; preds = %83
  %89 = getelementptr inbounds nuw %struct.wtap_rec, ptr %11, i32 0, i32 1
  %90 = load i32, ptr %89, align 4
  %91 = and i32 %90, 1
  %92 = icmp ne i32 %91, 0
  br i1 %92, label %93, label %96

93:                                               ; preds = %88
  %94 = load ptr, ptr %7, align 8
  %95 = getelementptr inbounds nuw %struct._frame_data, ptr %94, i32 0, i32 14
  call void @nstime_set_zero(ptr noundef %95)
  br label %96

96:                                               ; preds = %93, %88, %83
  store i1 true, ptr %5, align 1
  store i32 1, ptr %15, align 4
  br label %97

97:                                               ; preds = %96, %70
  call void @llvm.lifetime.end.p0(i64 8, ptr %14) #19
  call void @llvm.lifetime.end.p0(i64 8, ptr %13) #19
  call void @llvm.lifetime.end.p0(i64 4, ptr %12) #19
  call void @llvm.lifetime.end.p0(i64 312, ptr %11) #19
  call void @llvm.lifetime.end.p0(i64 8, ptr %10) #19
  %98 = load i1, ptr %5, align 1
  ret i1 %98
}