; Function Attrs: null_pointer_is_valid sspstrong uwtable
define internal noundef zeroext i1 @save_record(ptr noundef %0, ptr noundef %1, ptr noundef readonly captures(none) %2, ptr noundef readonly captures(none) %3) #1 {
  %5 = alloca %struct.wtap_rec, align 8
  %6 = alloca i32, align 4
  %7 = alloca ptr, align 8
  call void @llvm.lifetime.start.p0(i64 312, ptr nonnull %5) #23
  call void @llvm.lifetime.start.p0(i64 4, ptr nonnull %6) #23
  call void @llvm.lifetime.start.p0(i64 8, ptr nonnull %7) #23
  call void @llvm.memcpy.p0.p0.i64(ptr noundef nonnull align 8 dereferenceable(312) %5, ptr noundef align 8 dereferenceable(312) %2, i64 312, i1 false)
  %8 = getelementptr inbounds nuw i8, ptr %1, i64 57
  %9 = load i16, ptr %8, align 1
  %10 = and i16 %9, 256
  %.not = icmp eq i16 %10, 0
  br i1 %.not, label %14, label %11

11:                                               ; preds = %4
  %12 = getelementptr inbounds nuw i8, ptr %0, i64 224
  %13 = tail call ptr @cap_file_provider_get_modified_block(ptr noundef nonnull %12, ptr noundef %1)
  %.pre = load i16, ptr %8, align 1
  br label %17

14:                                               ; preds = %4
  %15 = getelementptr inbounds nuw i8, ptr %2, i64 232
  %16 = load ptr, ptr %15, align 8
  br label %17

17:                                               ; preds = %14, %11
  %18 = phi i16 [ %.pre, %11 ], [ %9, %14 ]
  %.0 = phi ptr [ %13, %11 ], [ %16, %14 ]
  %19 = getelementptr inbounds nuw i8, ptr %5, i64 232
  store ptr %.0, ptr %19, align 8
  %20 = getelementptr inbounds nuw i8, ptr %5, i64 240
  %21 = lshr i16 %18, 8
  %22 = trunc nuw i16 %21 to i8
  %23 = and i8 %22, 1
  store i8 %23, ptr %20, align 8
  %24 = getelementptr inbounds nuw i8, ptr %1, i64 80
  %25 = tail call zeroext i1 @nstime_is_zero(ptr noundef nonnull %24)
  br i1 %25, label %32, label %26

26:                                               ; preds = %17
  %27 = getelementptr inbounds nuw i8, ptr %5, i64 4
  %28 = load i32, ptr %27, align 4
  %29 = and i32 %28, 1
  %.not19 = icmp eq i32 %29, 0
  br i1 %.not19, label %32, label %30

30:                                               ; preds = %26
  %31 = getelementptr inbounds nuw i8, ptr %5, i64 16
  call void @nstime_sum(ptr noundef nonnull %31, ptr noundef nonnull %31, ptr noundef nonnull %24)
  br label %32

32:                                               ; preds = %26, %30, %17
  %33 = load ptr, ptr %3, align 8
  %34 = getelementptr inbounds nuw i8, ptr %2, i64 280
  %.val = load ptr, ptr %34, align 8
  %35 = getelementptr i8, ptr %2, i64 296
  %.val21 = load i64, ptr %35, align 8
  %36 = getelementptr i8, ptr %.val, i64 %.val21
  %37 = call zeroext i1 @wtap_dump(ptr noundef %33, ptr noundef nonnull %5, ptr noundef %36, ptr noundef nonnull %6, ptr noundef nonnull %7)
  br i1 %37, label %47, label %38

38:                                               ; preds = %32
  %39 = getelementptr inbounds nuw i8, ptr %3, i64 8
  %40 = load ptr, ptr %39, align 8
  %41 = load i32, ptr %6, align 4
  %42 = load ptr, ptr %7, align 8
  %43 = load i32, ptr %1, align 8
  %44 = zext i32 %43 to i64
  %45 = getelementptr inbounds nuw i8, ptr %3, i64 16
  %46 = load i32, ptr %45, align 8
  call void @report_cfile_write_failure(ptr noundef null, ptr noundef %40, i32 noundef %41, ptr noundef %42, i64 noundef %44, i32 noundef %46)
  br label %56

47:                                               ; preds = %32
  %48 = getelementptr inbounds nuw i8, ptr %3, i64 20
  %49 = load i8, ptr %48, align 4, !range !9, !noundef !10
  %50 = trunc nuw i8 %49 to i1
  br i1 %50, label %56, label %51

51:                                               ; preds = %47
  %52 = getelementptr inbounds nuw i8, ptr %5, i64 4
  %53 = load i32, ptr %52, align 4
  %54 = and i32 %53, 1
  %.not20 = icmp eq i32 %54, 0
  br i1 %.not20, label %56, label %55

55:                                               ; preds = %51
  call void @nstime_set_zero(ptr noundef nonnull %24)
  br label %56

56:                                               ; preds = %47, %51, %55, %38
  call void @llvm.lifetime.end.p0(i64 8, ptr nonnull %7) #23
  call void @llvm.lifetime.end.p0(i64 4, ptr nonnull %6) #23
  call void @llvm.lifetime.end.p0(i64 312, ptr nonnull %5) #23
  ret i1 %37
}